target datalayout = "e-m:e-p270:32:32-p271:32:32-p272:64:64-i64:64-i128:128-f80:128-n8:16:32:64-S128"
target triple = "x86_64-pc-linux-gnu"

%struct.Agobj_s = type { %struct.Agtag_s, ptr }
%struct.Agtag_s = type { i32, i64 }
%struct.Agnodeinfo_t = type { %struct.Agrec_s, ptr, ptr, %struct.pointf_s, double, double, %struct.boxf, double, double, double, double, double, ptr, ptr, ptr, i8, i8, i8, i8, i32, i32, i32, ptr, double, i8, i8, ptr, ptr, i8, i64, i8, i8, i8, ptr, ptr, %struct.elist, %struct.elist, %struct.elist, %struct.elist, %struct.elist, ptr, i32, ptr, i32, i32, double, %struct.elist, %struct.elist, %struct.elist, %struct.elist, ptr, i32, i32, i32, [1 x double] }
%struct.Agrec_s = type { ptr, ptr }
%struct.pointf_s = type { double, double }
%struct.boxf = type { %struct.pointf_s, %struct.pointf_s }
%struct.elist = type { ptr, i64 }
%struct.Agedgeinfo_t = type { %struct.Agrec_s, ptr, %struct.port, %struct.port, ptr, ptr, ptr, ptr, i8, i8, i8, i8, i8, ptr, ptr, double, double, %struct.Ppoly_t, i8, i8, i16, i32, i32, i32, i16, i32, ptr }
%struct.port = type { %struct.pointf_s, double, ptr, i8, i8, i8, i8, i8, i8, ptr }
%struct.Ppoly_t = type { ptr, i64 }
%struct.Agraphinfo_t = type { %struct.Agrec_s, ptr, ptr, %struct.boxf, [4 x %struct.pointf_s], i8, i8, i8, i8, i32, double, double, i16, ptr, ptr, ptr, ptr, i32, ptr, ptr, ptr, ptr, i16, i16, i32, ptr, ptr, ptr, ptr, ptr, i32, ptr, ptr, %struct.nlist_t, ptr, ptr, i32, i32, i8, i8, i32, i32, i32, ptr, ptr, ptr, ptr, i8, i8, i8, i8, i8 }
%struct.nlist_t = type { ptr, i64 }
%struct.textlabel_t = type { ptr, ptr, ptr, i32, double, %struct.pointf_s, %struct.pointf_s, %struct.pointf_s, %union.anon.0, i8, i8, i8 }
%union.anon.0 = type { %struct.anon }
%struct.anon = type { ptr, i64 }

; Function Attrs: nounwind uwtable
define internal void @incr_width(ptr noundef %0, ptr noundef %1) #0 {
  %3 = alloca ptr, align 8
  %4 = alloca ptr, align 8
  %5 = alloca i32, align 4
  store ptr %0, ptr %3, align 8, !tbaa !3
  store ptr %1, ptr %4, align 8, !tbaa !51
  call void @llvm.lifetime.start.p0(i64 4, ptr %5) #9
  %6 = load ptr, ptr %3, align 8, !tbaa !3
  %7 = getelementptr inbounds nuw %struct.Agobj_s, ptr %6, i32 0, i32 1
  %8 = load ptr, ptr %7, align 8, !tbaa !22
  %9 = getelementptr inbounds nuw %struct.Agraphinfo_t, ptr %8, i32 0, i32 41
  %10 = load i32, ptr %9, align 8, !tbaa !52
  %11 = sdiv i32 %10, 2
  store i32 %11, ptr %5, align 4, !tbaa !35
  %12 = load i32, ptr %5, align 4, !tbaa !35
  %13 = sitofp i32 %12 to double
  %14 = load ptr, ptr %4, align 8, !tbaa !51
  %15 = getelementptr inbounds nuw %struct.Agobj_s, ptr %14, i32 0, i32 1
  %16 = load ptr, ptr %15, align 8, !tbaa !22
  %17 = getelementptr inbounds nuw %struct.Agnodeinfo_t, ptr %16, i32 0, i32 8
  %18 = load double, ptr %17, align 8, !tbaa !62
  %19 = fadd double %18, %13
  store double %19, ptr %17, align 8, !tbaa !62
  %20 = load i32, ptr %5, align 4, !tbaa !35
  %21 = sitofp i32 %20 to double
  %22 = load ptr, ptr %4, align 8, !tbaa !51
  %23 = getelementptr inbounds nuw %struct.Agobj_s, ptr %22, i32 0, i32 1
  %24 = load ptr, ptr %23, align 8, !tbaa !22
  %25 = getelementptr inbounds nuw %struct.Agnodeinfo_t, ptr %24, i32 0, i32 9
  %26 = load double, ptr %25, align 8, !tbaa !63
  %27 = fadd double %26, %21
  store double %27, ptr %25, align 8, !tbaa !63
  call void @llvm.lifetime.end.p0(i64 4, ptr %5) #9
  ret void
}

; Function Attrs: nounwind uwtable
define internal ptr @plain_vnode(ptr noundef %0) #0 {
  %2 = alloca ptr, align 8
  %3 = alloca ptr, align 8
  store ptr %0, ptr %2, align 8, !tbaa !3
  call void @llvm.lifetime.start.p0(i64 8, ptr %3) #9
  %4 = load ptr, ptr %2, align 8, !tbaa !3
  %5 = call ptr @virtual_node(ptr noundef %4)
  store ptr %5, ptr %3, align 8, !tbaa !51
  %6 = load ptr, ptr %2, align 8, !tbaa !3
  %7 = load ptr, ptr %3, align 8, !tbaa !51
  call void @incr_width(ptr noundef %6, ptr noundef %7)
  %8 = load ptr, ptr %3, align 8, !tbaa !51
  call void @llvm.lifetime.end.p0(i64 8, ptr %3) #9
  ret ptr %8
}

; Function Attrs: nounwind uwtable
define internal ptr @label_vnode(ptr noundef %0, ptr noundef %1) #0 {
  %3 = alloca ptr, align 8
  %4 = alloca ptr, align 8
  %5 = alloca ptr, align 8
  %6 = alloca %struct.pointf_s, align 8
  store ptr %0, ptr %3, align 8, !tbaa !3
  store ptr %1, ptr %4, align 8, !tbaa !8
  call void @llvm.lifetime.start.p0(i64 8, ptr %5) #9
  call void @llvm.lifetime.start.p0(i64 16, ptr %6) #9
  %7 = load ptr, ptr %4, align 8, !tbaa !8
  %8 = getelementptr inbounds nuw %struct.Agobj_s, ptr %7, i32 0, i32 1
  %9 = load ptr, ptr %8, align 8, !tbaa !22
  %10 = getelementptr inbounds nuw %struct.Agedgeinfo_t, ptr %9, i32 0, i32 4
  %11 = load ptr, ptr %10, align 8, !tbaa !64
  %12 = getelementptr inbounds nuw %struct.textlabel_t, ptr %11, i32 0, i32 5
  call void @llvm.memcpy.p0.p0.i64(ptr align 8 %6, ptr align 8 %12, i64 16, i1 false), !tbaa.struct !84
  %13 = load ptr, ptr %3, align 8, !tbaa !3
  %14 = call ptr @virtual_node(ptr noundef %13)
  store ptr %14, ptr %5, align 8, !tbaa !51
  %15 = load ptr, ptr %4, align 8, !tbaa !8
  %16 = getelementptr inbounds nuw %struct.Agobj_s, ptr %15, i32 0, i32 1
  %17 = load ptr, ptr %16, align 8, !tbaa !22
  %18 = getelementptr inbounds nuw %struct.Agedgeinfo_t, ptr %17, i32 0, i32 4
  %19 = load ptr, ptr %18, align 8, !tbaa !64
  %20 = load ptr, ptr %5, align 8, !tbaa !51
  %21 = getelementptr inbounds nuw %struct.Agobj_s, ptr %20, i32 0, i32 1
  %22 = load ptr, ptr %21, align 8, !tbaa !22
  %23 = getelementptr inbounds nuw %struct.Agnodeinfo_t, ptr %22, i32 0, i32 12
  store ptr %19, ptr %23, align 8, !tbaa !86
  %24 = load ptr, ptr %5, align 8, !tbaa !51
  %25 = call ptr @agroot(ptr noundef %24)
  %26 = getelementptr inbounds nuw %struct.Agobj_s, ptr %25, i32 0, i32 1
  %27 = load ptr, ptr %26, align 8, !tbaa !22
  %28 = getelementptr inbounds nuw %struct.Agraphinfo_t, ptr %27, i32 0, i32 41
  %29 = load i32, ptr %28, align 8, !tbaa !52
  %30 = sitofp i32 %29 to double
  %31 = load ptr, ptr %5, align 8, !tbaa !51
  %32 = getelementptr inbounds nuw %struct.Agobj_s, ptr %31, i32 0, i32 1
  %33 = load ptr, ptr %32, align 8, !tbaa !22
  %34 = getelementptr inbounds nuw %struct.Agnodeinfo_t, ptr %33, i32 0, i32 8
  store double %30, ptr %34, align 8, !tbaa !62
  %35 = load ptr, ptr %4, align 8, !tbaa !8
  %36 = getelementptr inbounds nuw %struct.Agobj_s, ptr %35, i32 0, i32 1
  %37 = load ptr, ptr %36, align 8, !tbaa !22
  %38 = getelementptr inbounds nuw %struct.Agedgeinfo_t, ptr %37, i32 0, i32 11
  %39 = load i8, ptr %38, align 1, !tbaa !87
  %40 = icmp ne i8 %39, 0
  br i1 %40, label %78, label %41

41:                                               ; preds = %2
  %42 = load ptr, ptr %3, align 8, !tbaa !3
  %43 = call ptr @agroot(ptr noundef %42)
  %44 = getelementptr inbounds nuw %struct.Agobj_s, ptr %43, i32 0, i32 1
  %45 = load ptr, ptr %44, align 8, !tbaa !22
  %46 = getelementptr inbounds nuw %struct.Agraphinfo_t, ptr %45, i32 0, i32 9
  %47 = load i32, ptr %46, align 4, !tbaa !88
  %48 = and i32 %47, 3
  %49 = and i32 %48, 1
  %50 = icmp ne i32 %49, 0
  br i1 %50, label %51, label %64

51:                                               ; preds = %41
  %52 = getelementptr inbounds nuw %struct.pointf_s, ptr %6, i32 0, i32 0
  %53 = load double, ptr %52, align 8, !tbaa !89
  %54 = load ptr, ptr %5, align 8, !tbaa !51
  %55 = getelementptr inbounds nuw %struct.Agobj_s, ptr %54, i32 0, i32 1
  %56 = load ptr, ptr %55, align 8, !tbaa !22
  %57 = getelementptr inbounds nuw %struct.Agnodeinfo_t, ptr %56, i32 0, i32 7
  store double %53, ptr %57, align 8, !tbaa !90
  %58 = getelementptr inbounds nuw %struct.pointf_s, ptr %6, i32 0, i32 1
  %59 = load double, ptr %58, align 8, !tbaa !91
  %60 = load ptr, ptr %5, align 8, !tbaa !51
  %61 = getelementptr inbounds nuw %struct.Agobj_s, ptr %60, i32 0, i32 1
  %62 = load ptr, ptr %61, align 8, !tbaa !22
  %63 = getelementptr inbounds nuw %struct.Agnodeinfo_t, ptr %62, i32 0, i32 9
  store double %59, ptr %63, align 8, !tbaa !63
  br label %77

64:                                               ; preds = %41
  %65 = getelementptr inbounds nuw %struct.pointf_s, ptr %6, i32 0, i32 1
  %66 = load double, ptr %65, align 8, !tbaa !91
  %67 = load ptr, ptr %5, align 8, !tbaa !51
  %68 = getelementptr inbounds nuw %struct.Agobj_s, ptr %67, i32 0, i32 1
  %69 = load ptr, ptr %68, align 8, !tbaa !22
  %70 = getelementptr inbounds nuw %struct.Agnodeinfo_t, ptr %69, i32 0, i32 7
  store double %66, ptr %70, align 8, !tbaa !90
  %71 = getelementptr inbounds nuw %struct.pointf_s, ptr %6, i32 0, i32 0
  %72 = load double, ptr %71, align 8, !tbaa !89
  %73 = load ptr, ptr %5, align 8, !tbaa !51
  %74 = getelementptr inbounds nuw %struct.Agobj_s, ptr %73, i32 0, i32 1
  %75 = load ptr, ptr %74, align 8, !tbaa !22
  %76 = getelementptr inbounds nuw %struct.Agnodeinfo_t, ptr %75, i32 0, i32 9
  store double %72, ptr %76, align 8, !tbaa !63
  br label %77

77:                                               ; preds = %64, %51
  br label %78

78:                                               ; preds = %77, %2
  %79 = load ptr, ptr %5, align 8, !tbaa !51
  call void @llvm.lifetime.end.p0(i64 16, ptr %6) #9
  call void @llvm.lifetime.end.p0(i64 8, ptr %5) #9
  ret ptr %79
}

; Function Attrs: nounwind uwtable
define internal void @make_chain(ptr noundef %0, ptr noundef %1, ptr noundef %2, ptr noundef %3) #0 {
  %5 = alloca ptr, align 8
  %6 = alloca ptr, align 8
  %7 = alloca ptr, align 8
  %8 = alloca ptr, align 8
  %9 = alloca i32, align 4
  %10 = alloca i32, align 4
  %11 = alloca ptr, align 8
  %12 = alloca ptr, align 8
  %13 = alloca ptr, align 8
  store ptr %0, ptr %5, align 8, !tbaa !3
  store ptr %1, ptr %6, align 8, !tbaa !51
  store ptr %2, ptr %7, align 8, !tbaa !51
  store ptr %3, ptr %8, align 8, !tbaa !8
  call void @llvm.lifetime.start.p0(i64 4, ptr %9) #9
  call void @llvm.lifetime.start.p0(i64 4, ptr %10) #9
  call void @llvm.lifetime.start.p0(i64 8, ptr %11) #9
  call void @llvm.lifetime.start.p0(i64 8, ptr %12) #9
  call void @llvm.lifetime.start.p0(i64 8, ptr %13) #9
  %14 = load ptr, ptr %6, align 8, !tbaa !51
  store ptr %14, ptr %11, align 8, !tbaa !51
  %15 = load ptr, ptr %8, align 8, !tbaa !8
  %16 = getelementptr inbounds nuw %struct.Agobj_s, ptr %15, i32 0, i32 1
  %17 = load ptr, ptr %16, align 8, !tbaa !22
  %18 = getelementptr inbounds nuw %struct.Agedgeinfo_t, ptr %17, i32 0, i32 4
  %19 = load ptr, ptr %18, align 8, !tbaa !64
  %20 = icmp ne ptr %19, null
  br i1 %20, label %21, label %34

21:                                               ; preds = %4
  %22 = load ptr, ptr %6, align 8, !tbaa !51
  %23 = getelementptr inbounds nuw %struct.Agobj_s, ptr %22, i32 0, i32 1
  %24 = load ptr, ptr %23, align 8, !tbaa !22
  %25 = getelementptr inbounds nuw %struct.Agnodeinfo_t, ptr %24, i32 0, i32 43
  %26 = load i32, ptr %25, align 8, !tbaa !23
  %27 = load ptr, ptr %7, align 8, !tbaa !51
  %28 = getelementptr inbounds nuw %struct.Agobj_s, ptr %27, i32 0, i32 1
  %29 = load ptr, ptr %28, align 8, !tbaa !22
  %30 = getelementptr inbounds nuw %struct.Agnodeinfo_t, ptr %29, i32 0, i32 43
  %31 = load i32, ptr %30, align 8, !tbaa !23
  %32 = add nsw i32 %26, %31
  %33 = sdiv i32 %32, 2
  store i32 %33, ptr %10, align 4, !tbaa !35
  br label %35

34:                                               ; preds = %4
  store i32 -1, ptr %10, align 4, !tbaa !35
  br label %35

35:                                               ; preds = %34, %21
  %36 = load ptr, ptr %6, align 8, !tbaa !51
  %37 = getelementptr inbounds nuw %struct.Agobj_s, ptr %36, i32 0, i32 1
  %38 = load ptr, ptr %37, align 8, !tbaa !22
  %39 = getelementptr inbounds nuw %struct.Agnodeinfo_t, ptr %38, i32 0, i32 43
  %40 = load i32, ptr %39, align 8, !tbaa !23
  %41 = add nsw i32 %40, 1
  store i32 %41, ptr %9, align 4, !tbaa !35
  br label %42

42:                                               ; preds = %84, %35
  %43 = load i32, ptr %9, align 4, !tbaa !35
  %44 = load ptr, ptr %7, align 8, !tbaa !51
  %45 = getelementptr inbounds nuw %struct.Agobj_s, ptr %44, i32 0, i32 1
  %46 = load ptr, ptr %45, align 8, !tbaa !22
  %47 = getelementptr inbounds nuw %struct.Agnodeinfo_t, ptr %46, i32 0, i32 43
  %48 = load i32, ptr %47, align 8, !tbaa !23
  %49 = icmp sle i32 %43, %48
  br i1 %49, label %50, label %87

50:                                               ; preds = %42
  %51 = load i32, ptr %9, align 4, !tbaa !35
  %52 = load ptr, ptr %7, align 8, !tbaa !51
  %53 = getelementptr inbounds nuw %struct.Agobj_s, ptr %52, i32 0, i32 1
  %54 = load ptr, ptr %53, align 8, !tbaa !22
  %55 = getelementptr inbounds nuw %struct.Agnodeinfo_t, ptr %54, i32 0, i32 43
  %56 = load i32, ptr %55, align 8, !tbaa !23
  %57 = icmp slt i32 %51, %56
  br i1 %57, label %58, label %75

58:                                               ; preds = %50
  %59 = load i32, ptr %9, align 4, !tbaa !35
  %60 = load i32, ptr %10, align 4, !tbaa !35
  %61 = icmp eq i32 %59, %60
  br i1 %61, label %62, label %66

62:                                               ; preds = %58
  %63 = load ptr, ptr %5, align 8, !tbaa !3
  %64 = load ptr, ptr %8, align 8, !tbaa !8
  %65 = call ptr @label_vnode(ptr noundef %63, ptr noundef %64)
  store ptr %65, ptr %12, align 8, !tbaa !51
  br label %69

66:                                               ; preds = %58
  %67 = load ptr, ptr %5, align 8, !tbaa !3
  %68 = call ptr @plain_vnode(ptr noundef %67)
  store ptr %68, ptr %12, align 8, !tbaa !51
  br label %69

69:                                               ; preds = %66, %62
  %70 = load i32, ptr %9, align 4, !tbaa !35
  %71 = load ptr, ptr %12, align 8, !tbaa !51
  %72 = getelementptr inbounds nuw %struct.Agobj_s, ptr %71, i32 0, i32 1
  %73 = load ptr, ptr %72, align 8, !tbaa !22
  %74 = getelementptr inbounds nuw %struct.Agnodeinfo_t, ptr %73, i32 0, i32 43
  store i32 %70, ptr %74, align 8, !tbaa !23
  br label %77

75:                                               ; preds = %50
  %76 = load ptr, ptr %7, align 8, !tbaa !51
  store ptr %76, ptr %12, align 8, !tbaa !51
  br label %77

77:                                               ; preds = %75, %69
  %78 = load ptr, ptr %11, align 8, !tbaa !51
  %79 = load ptr, ptr %12, align 8, !tbaa !51
  %80 = load ptr, ptr %8, align 8, !tbaa !8
  %81 = call ptr @virtual_edge(ptr noundef %78, ptr noundef %79, ptr noundef %80)
  store ptr %81, ptr %13, align 8, !tbaa !8
  %82 = load ptr, ptr %13, align 8, !tbaa !8
  call void @virtual_weight(ptr noundef %82)
  %83 = load ptr, ptr %12, align 8, !tbaa !51
  store ptr %83, ptr %11, align 8, !tbaa !51
  br label %84

84:                                               ; preds = %77
  %85 = load i32, ptr %9, align 4, !tbaa !35
  %86 = add nsw i32 %85, 1
  store i32 %86, ptr %9, align 4, !tbaa !35
  br label %42, !llvm.loop !81

87:                                               ; preds = %42
  call void @llvm.lifetime.end.p0(i64 8, ptr %13) #9
  call void @llvm.lifetime.end.p0(i64 8, ptr %12) #9
  call void @llvm.lifetime.end.p0(i64 8, ptr %11) #9
  call void @llvm.lifetime.end.p0(i64 4, ptr %10) #9
  call void @llvm.lifetime.end.p0(i64 4, ptr %9) #9
  ret void
}