; Function Attrs: nounwind uwtable
define internal fastcc void @make_chain(ptr noundef %0, ptr noundef %1, ptr noundef %2, ptr noundef nonnull %3) unnamed_addr #1 {
  %5 = getelementptr inbounds nuw i8, ptr %3, i64 16
  %6 = load ptr, ptr %5, align 8, !tbaa !16
  %7 = getelementptr inbounds nuw i8, ptr %6, i64 120
  %8 = load ptr, ptr %7, align 8, !tbaa !58
  %.not = icmp eq ptr %8, null
  %.phi.trans.insert = getelementptr inbounds nuw i8, ptr %1, i64 16
  %.pre = load ptr, ptr %.phi.trans.insert, align 8, !tbaa !16
  %.phi.trans.insert32 = getelementptr inbounds nuw i8, ptr %.pre, i64 360
  %.pre33 = load i32, ptr %.phi.trans.insert32, align 8, !tbaa !17
  %.phi.trans.insert34 = getelementptr inbounds nuw i8, ptr %2, i64 16
  %.pre35 = load ptr, ptr %.phi.trans.insert34, align 8, !tbaa !16
  %.phi.trans.insert36 = getelementptr inbounds nuw i8, ptr %.pre35, i64 360
  %.pre37 = load i32, ptr %.phi.trans.insert36, align 8, !tbaa !17
  br i1 %.not, label %._crit_edge31, label %9

9:                                                ; preds = %4
  %10 = add nsw i32 %.pre37, %.pre33
  %11 = sdiv i32 %10, 2
  br label %._crit_edge31

._crit_edge31:                                    ; preds = %4, %9
  %.024 = phi i32 [ %11, %9 ], [ -1, %4 ]
  %12 = getelementptr inbounds nuw i8, ptr %2, i64 16
  %.not26.not28 = icmp slt i32 %.pre33, %.pre37
  br i1 %.not26.not28, label %.lr.ph, label %._crit_edge

.lr.ph:                                           ; preds = %._crit_edge31
  %13 = getelementptr i8, ptr %0, i64 16
  br label %14

14:                                               ; preds = %.lr.ph, %65
  %15 = phi i32 [ %.pre37, %.lr.ph ], [ %69, %65 ]
  %.030.in = phi i32 [ %.pre33, %.lr.ph ], [ %.030, %65 ]
  %.02329 = phi ptr [ %1, %.lr.ph ], [ %.1, %65 ]
  %.030 = add nsw i32 %.030.in, 1
  %16 = icmp slt i32 %.030, %15
  br i1 %16, label %17, label %65

17:                                               ; preds = %14
  %18 = icmp eq i32 %.030, %.024
  br i1 %18, label %19, label %51

19:                                               ; preds = %17
  %20 = load ptr, ptr %5, align 8, !tbaa !16
  %21 = getelementptr inbounds nuw i8, ptr %20, i64 120
  %22 = load ptr, ptr %21, align 8, !tbaa !58
  %23 = getelementptr inbounds nuw i8, ptr %22, i64 40
  %.sroa.0.0.copyload.i = load double, ptr %23, align 8, !tbaa !83
  %.sroa.5.0..sroa_idx.i = getelementptr inbounds nuw i8, ptr %22, i64 48
  %.sroa.5.0.copyload.i = load double, ptr %.sroa.5.0..sroa_idx.i, align 8, !tbaa !83
  %24 = tail call ptr @virtual_node(ptr noundef %0) #9
  %25 = load ptr, ptr %5, align 8, !tbaa !16
  %26 = getelementptr inbounds nuw i8, ptr %25, i64 120
  %27 = load ptr, ptr %26, align 8, !tbaa !58
  %28 = getelementptr inbounds nuw i8, ptr %24, i64 16
  %29 = load ptr, ptr %28, align 8, !tbaa !16
  %30 = getelementptr inbounds nuw i8, ptr %29, i64 136
  store ptr %27, ptr %30, align 8, !tbaa !84
  %31 = tail call ptr @agroot(ptr noundef %24) #9
  %32 = getelementptr inbounds nuw i8, ptr %31, i64 16
  %33 = load ptr, ptr %32, align 8, !tbaa !16
  %34 = getelementptr inbounds nuw i8, ptr %33, i64 352
  %35 = load i32, ptr %34, align 8, !tbaa !42
  %36 = sitofp i32 %35 to double
  %37 = load ptr, ptr %28, align 8, !tbaa !16
  %38 = getelementptr inbounds nuw i8, ptr %37, i64 104
  store double %36, ptr %38, align 8, !tbaa !52
  %39 = load ptr, ptr %5, align 8, !tbaa !16
  %40 = getelementptr inbounds nuw i8, ptr %39, i64 155
  %41 = load i8, ptr %40, align 1, !tbaa !85
  %.not.i = icmp eq i8 %41, 0
  br i1 %.not.i, label %.sink.split.i, label %label_vnode.exit

.sink.split.i:                                    ; preds = %19
  %42 = tail call ptr @agroot(ptr noundef %0) #9
  %43 = getelementptr inbounds nuw i8, ptr %42, i64 16
  %44 = load ptr, ptr %43, align 8, !tbaa !16
  %45 = getelementptr inbounds nuw i8, ptr %44, i64 132
  %46 = load i32, ptr %45, align 4, !tbaa !86
  %47 = and i32 %46, 1
  %.not15.i = icmp eq i32 %47, 0
  %48 = load ptr, ptr %28, align 8, !tbaa !16
  %49 = getelementptr inbounds nuw i8, ptr %48, i64 96
  %50 = getelementptr inbounds nuw i8, ptr %48, i64 112
  %.sroa.5.0.copyload..sroa.0.0.copyload.i = select i1 %.not15.i, double %.sroa.5.0.copyload.i, double %.sroa.0.0.copyload.i
  %.sroa.0.0.copyload..sroa.5.0.copyload.i = select i1 %.not15.i, double %.sroa.0.0.copyload.i, double %.sroa.5.0.copyload.i
  store double %.sroa.5.0.copyload..sroa.0.0.copyload.i, ptr %49, align 8, !tbaa !87
  store double %.sroa.0.0.copyload..sroa.5.0.copyload.i, ptr %50, align 8, !tbaa !53
  br label %label_vnode.exit

51:                                               ; preds = %17
  %52 = tail call ptr @virtual_node(ptr noundef %0) #9
  %.val.i = load ptr, ptr %13, align 8, !tbaa !16
  %53 = getelementptr i8, ptr %52, i64 16
  %.val4.i = load ptr, ptr %53, align 8, !tbaa !16
  %54 = getelementptr i8, ptr %.val.i, i64 352
  %.val.val.i = load i32, ptr %54, align 8, !tbaa !42
  %55 = sdiv i32 %.val.val.i, 2
  %56 = sitofp i32 %55 to double
  %57 = getelementptr inbounds nuw i8, ptr %.val4.i, i64 104
  %58 = load double, ptr %57, align 8, !tbaa !52
  %59 = fadd double %58, %56
  store double %59, ptr %57, align 8, !tbaa !52
  %60 = getelementptr inbounds nuw i8, ptr %.val4.i, i64 112
  %61 = load double, ptr %60, align 8, !tbaa !53
  %62 = fadd double %61, %56
  store double %62, ptr %60, align 8, !tbaa !53
  br label %label_vnode.exit

label_vnode.exit:                                 ; preds = %.sink.split.i, %19, %51
  %63 = phi ptr [ %.val4.i, %51 ], [ %37, %19 ], [ %48, %.sink.split.i ]
  %.022 = phi ptr [ %52, %51 ], [ %24, %19 ], [ %24, %.sink.split.i ]
  %64 = getelementptr inbounds nuw i8, ptr %63, i64 360
  store i32 %.030, ptr %64, align 8, !tbaa !17
  br label %65

65:                                               ; preds = %14, %label_vnode.exit
  %.1 = phi ptr [ %.022, %label_vnode.exit ], [ %2, %14 ]
  %66 = tail call ptr @virtual_edge(ptr noundef nonnull %.02329, ptr noundef nonnull %.1, ptr noundef nonnull %3) #9
  tail call void @virtual_weight(ptr noundef %66) #9
  %67 = load ptr, ptr %12, align 8, !tbaa !16
  %68 = getelementptr inbounds nuw i8, ptr %67, i64 360
  %69 = load i32, ptr %68, align 8, !tbaa !17
  %.not26.not = icmp slt i32 %.030, %69
  br i1 %.not26.not, label %14, label %._crit_edge, !llvm.loop !88

._crit_edge:                                      ; preds = %65, %._crit_edge31
  ret void
}